; Function Attrs: mustprogress uwtable
define noundef nonnull align 8 dereferenceable(489) ptr @_ZN6icu_776number4impl19NumberFormatterImpl16preProcessUnsafeERNS1_15DecimalQuantityER10UErrorCode(ptr noundef nonnull align 8 dereferenceable(600) %0, ptr noundef nonnull align 8 dereferenceable(66) %1, ptr noundef nonnull align 4 dereferenceable(4) %2) local_unnamed_addr #1 align 2 {
  %4 = load i32, ptr %2, align 4, !tbaa !13
  %5 = icmp slt i32 %4, 1
  br i1 %5, label %8, label %6

6:                                                ; preds = %3
  %7 = getelementptr inbounds nuw i8, ptr %0, i64 8
  br label %19

8:                                                ; preds = %3
  %9 = load ptr, ptr %0, align 8, !tbaa !15
  %10 = icmp eq ptr %9, null
  br i1 %10, label %11, label %13

11:                                               ; preds = %8
  store i32 5, ptr %2, align 4, !tbaa !13
  %12 = getelementptr inbounds nuw i8, ptr %0, i64 8
  br label %19

13:                                               ; preds = %8
  %14 = getelementptr inbounds nuw i8, ptr %0, i64 8
  %15 = load ptr, ptr %9, align 8, !tbaa !93
  %16 = getelementptr inbounds nuw i8, ptr %15, i64 16
  %17 = load ptr, ptr %16, align 8
  tail call void %17(ptr noundef nonnull align 8 dereferenceable(8) %9, ptr noundef nonnull align 8 dereferenceable(66) %1, ptr noundef nonnull align 8 dereferenceable(489) %14, ptr noundef nonnull align 4 dereferenceable(4) %2)
  %18 = getelementptr inbounds nuw i8, ptr %0, i64 164
  tail call void @_ZNK6icu_776number12IntegerWidth5applyERNS0_4impl15DecimalQuantityER10UErrorCode(ptr noundef nonnull align 4 dereferenceable(9) %18, ptr noundef nonnull align 8 dereferenceable(66) %1, ptr noundef nonnull align 4 dereferenceable(4) %2)
  br label %19

19:                                               ; preds = %13, %11, %6
  %.0 = phi ptr [ %7, %6 ], [ %12, %11 ], [ %14, %13 ]
  ret ptr %.0
}